target datalayout = "e-m:e-p270:32:32-p271:32:32-p272:64:64-i64:64-i128:128-f80:128-n8:16:32:64-S128"
target triple = "x86_64-pc-linux-gnu"

%struct.redisServer = type { i32, i64, ptr, ptr, ptr, i32, i32, i32, i32, i32, ptr, ptr, ptr, ptr, ptr, i32, i32, i32, i32, i64, i32, i32, i32, i32, ptr, i32, i32, [41 x i8], i32, i64, i32, i32, i32, ptr, ptr, i32, i32, i64, ptr, ptr, ptr, ptr, [2 x i32], i32, i32, i32, i32, i32, i32, [16 x ptr], i32, ptr, ptr, i32, [8 x %struct.connListener], i32, %struct.connListener, ptr, ptr, ptr, ptr, ptr, ptr, ptr, ptr, ptr, ptr, i32, ptr, i32, ptr, [3 x %struct.pause_event], [256 x i8], ptr, i64, i32, i32, [128 x i32], i32, i32, i64, i32, i32, i32, i32, i32, i64, i64, i64, i64, i64, i64, i64, i64, i64, i64, double, i64, i64, i64, i64, i64, i64, i64, i64, i64, i64, i64, i64, i64, i64, i64, i64, i64, i64, i64, i64, i64, double, i64, i64, i64, i64, i64, ptr, i64, i64, i64, %struct.malloc_stats, i64, i64, i64, i64, i64, i64, i64, i64, i64, i64, i64, i64, double, [4 x i64], i64, i64, i64, i64, [128 x i64], [128 x i64], i64, i64, [7 x %struct.anon], i64, i64, i64, i64, i64, i64, [4 x %struct.durationStats], i32, i32, i32, i32, i32, i32, i32, i32, i32, i32, i32, i32, i64, i32, i32, i32, i32, i64, i64, i32, i32, i32, i32, i32, ptr, [3 x %struct.clientBufferLimitsConfig], i32, i32, i32, ptr, i32, i32, i32, i32, i32, i32, ptr, ptr, i32, i32, i64, i64, i64, i64, i64, i32, i32, ptr, i32, i32, i64, i64, i64, i64, i64, i32, i32, i64, i32, i32, i32, i32, i32, i32, i32, i32, ptr, i32, i64, i64, i64, i64, i32, ptr, i32, ptr, i32, i32, i32, i64, i64, i64, i64, i32, i32, i32, i32, i32, i32, ptr, i32, i32, ptr, i32, i32, i32, [2 x i32], i32, %struct.redisOpArray, i32, ptr, i32, ptr, i32, i32, i32, i32, i32, i32, i32, [41 x i8], [41 x i8], i64, i64, i64, i64, i32, i32, ptr, i64, i64, %struct.replDataBuf, i64, i64, i32, i32, i32, i32, i32, i32, i32, i32, i32, i64, ptr, i64, ptr, ptr, ptr, i32, i32, ptr, ptr, i32, i32, i32, i64, i64, i64, i64, ptr, ptr, i32, ptr, i64, i32, i32, i32, i64, i32, i32, i32, i32, ptr, i32, i32, [41 x i8], i64, i32, ptr, i32, i32, i64, i64, i32, i32, i32, i32, i32, i64, [3 x i32], i32, i32, i32, [10 x i32], ptr, ptr, i32, i64, ptr, ptr, i32, i32, i32, i32, i64, i64, i64, i64, i64, i64, i64, i64, i64, i64, i32, i32, i64, i64, i32, i64, i64, i64, i64, i64, ptr, ptr, i32, ptr, i32, i32, i32, i32, i64, i64, ptr, ptr, i32, i32, i32, i32, i32, ptr, ptr, ptr, i32, i32, i32, i32, i32, i32, i32, i64, i32, i32, i64, i32, i32, i32, i32, i32, i32, i32, i64, ptr, ptr, i64, ptr, i32, %struct.aclInfo, i32, i64, i32, i32, i32, %struct.redisTLSContextConfig, ptr, ptr, ptr, ptr, ptr, i64, i32, ptr, i32, i32, i32, i64, i32, ptr }
%struct.connListener = type { [16 x i32], i32, ptr, i32, i32, ptr, ptr }
%struct.pause_event = type { i32, i64 }
%struct.malloc_stats = type { i64, i64, i64, i64, i64, i64, i64, i64, i64, i64, i64 }
%struct.anon = type { i64, i64, [16 x i64], i32 }
%struct.durationStats = type { i64, i64, i64 }
%struct.clientBufferLimitsConfig = type { i64, i64, i64 }
%struct.redisOpArray = type { ptr, i32, i32 }
%struct.replDataBuf = type { ptr, i64, i64, i64, i64 }
%struct.aclInfo = type { i64, i64, i64, i64 }
%struct.redisTLSContextConfig = type { ptr, ptr, ptr, ptr, ptr, ptr, ptr, ptr, ptr, ptr, ptr, ptr, i32, i32, i32, i32 }
%struct.clusterState = type { ptr, i64, i32, i32, ptr, ptr, ptr, [16384 x ptr], [16384 x ptr], [16384 x ptr], [40 x i8], i64, i32, i32, i32, i64, i32, i64, ptr, i64, i32, i64, i32, [11 x i64], [11 x i64], i64, i64, [2048 x i8] }

@server = external global %struct.redisServer, align 8

; Function Attrs: nounwind uwtable
define dso_local void @clusterDelNode(ptr noundef %0) #0 {
  %2 = alloca ptr, align 8
  %3 = alloca i32, align 4
  %4 = alloca ptr, align 8
  %5 = alloca ptr, align 8
  %6 = alloca ptr, align 8
  %7 = alloca i32, align 4
  store ptr %0, ptr %2, align 8, !tbaa !5
  call void @llvm.lifetime.start.p0(i64 4, ptr %3) #16
  call void @llvm.lifetime.start.p0(i64 8, ptr %4) #16
  call void @llvm.lifetime.start.p0(i64 8, ptr %5) #16
  store i32 0, ptr %3, align 4, !tbaa !46
  br label %8

8:                                                ; preds = %54, %1
  %9 = load i32, ptr %3, align 4, !tbaa !46
  %10 = icmp slt i32 %9, 16384
  br i1 %10, label %11, label %57

11:                                               ; preds = %8
  %12 = load ptr, ptr getelementptr inbounds nuw (%struct.redisServer, ptr @server, i32 0, i32 385), align 8, !tbaa !57
  %13 = getelementptr inbounds nuw %struct.clusterState, ptr %12, i32 0, i32 8
  %14 = load i32, ptr %3, align 4, !tbaa !46
  %15 = sext i32 %14 to i64
  %16 = getelementptr inbounds [16384 x ptr], ptr %13, i64 0, i64 %15
  %17 = load ptr, ptr %16, align 8, !tbaa !5
  %18 = load ptr, ptr %2, align 8, !tbaa !5
  %19 = icmp eq ptr %17, %18
  br i1 %19, label %20, label %26

20:                                               ; preds = %11
  %21 = load ptr, ptr getelementptr inbounds nuw (%struct.redisServer, ptr @server, i32 0, i32 385), align 8, !tbaa !57
  %22 = getelementptr inbounds nuw %struct.clusterState, ptr %21, i32 0, i32 8
  %23 = load i32, ptr %3, align 4, !tbaa !46
  %24 = sext i32 %23 to i64
  %25 = getelementptr inbounds [16384 x ptr], ptr %22, i64 0, i64 %24
  store ptr null, ptr %25, align 8, !tbaa !5
  br label %26

26:                                               ; preds = %20, %11
  %27 = load ptr, ptr getelementptr inbounds nuw (%struct.redisServer, ptr @server, i32 0, i32 385), align 8, !tbaa !57
  %28 = getelementptr inbounds nuw %struct.clusterState, ptr %27, i32 0, i32 7
  %29 = load i32, ptr %3, align 4, !tbaa !46
  %30 = sext i32 %29 to i64
  %31 = getelementptr inbounds [16384 x ptr], ptr %28, i64 0, i64 %30
  %32 = load ptr, ptr %31, align 8, !tbaa !5
  %33 = load ptr, ptr %2, align 8, !tbaa !5
  %34 = icmp eq ptr %32, %33
  br i1 %34, label %35, label %41

35:                                               ; preds = %26
  %36 = load ptr, ptr getelementptr inbounds nuw (%struct.redisServer, ptr @server, i32 0, i32 385), align 8, !tbaa !57
  %37 = getelementptr inbounds nuw %struct.clusterState, ptr %36, i32 0, i32 7
  %38 = load i32, ptr %3, align 4, !tbaa !46
  %39 = sext i32 %38 to i64
  %40 = getelementptr inbounds [16384 x ptr], ptr %37, i64 0, i64 %39
  store ptr null, ptr %40, align 8, !tbaa !5
  br label %41

41:                                               ; preds = %35, %26
  %42 = load ptr, ptr getelementptr inbounds nuw (%struct.redisServer, ptr @server, i32 0, i32 385), align 8, !tbaa !57
  %43 = getelementptr inbounds nuw %struct.clusterState, ptr %42, i32 0, i32 9
  %44 = load i32, ptr %3, align 4, !tbaa !46
  %45 = sext i32 %44 to i64
  %46 = getelementptr inbounds [16384 x ptr], ptr %43, i64 0, i64 %45
  %47 = load ptr, ptr %46, align 8, !tbaa !5
  %48 = load ptr, ptr %2, align 8, !tbaa !5
  %49 = icmp eq ptr %47, %48
  br i1 %49, label %50, label %53

50:                                               ; preds = %41
  %51 = load i32, ptr %3, align 4, !tbaa !46
  %52 = call i32 @clusterDelSlot(i32 noundef %51)
  br label %53

53:                                               ; preds = %50, %41
  br label %54

54:                                               ; preds = %53
  %55 = load i32, ptr %3, align 4, !tbaa !46
  %56 = add nsw i32 %55, 1
  store i32 %56, ptr %3, align 4, !tbaa !46
  br label %8, !llvm.loop !170

57:                                               ; preds = %8
  %58 = load ptr, ptr getelementptr inbounds nuw (%struct.redisServer, ptr @server, i32 0, i32 385), align 8, !tbaa !57
  %59 = getelementptr inbounds nuw %struct.clusterState, ptr %58, i32 0, i32 4
  %60 = load ptr, ptr %59, align 8, !tbaa !95
  %61 = call ptr @dictGetSafeIterator(ptr noundef %60)
  store ptr %61, ptr %4, align 8, !tbaa !113
  br label %62

62:                                               ; preds = %79, %77, %57
  %63 = load ptr, ptr %4, align 8, !tbaa !113
  %64 = call ptr @dictNext(ptr noundef %63)
  store ptr %64, ptr %5, align 8, !tbaa !60
  %65 = icmp ne ptr %64, null
  br i1 %65, label %66, label %80

66:                                               ; preds = %62
  call void @llvm.lifetime.start.p0(i64 8, ptr %6) #16
  %67 = load ptr, ptr %5, align 8, !tbaa !60
  %68 = call ptr @dictGetVal(ptr noundef %67)
  store ptr %68, ptr %6, align 8, !tbaa !5
  %69 = load ptr, ptr %6, align 8, !tbaa !5
  %70 = load ptr, ptr %2, align 8, !tbaa !5
  %71 = icmp eq ptr %69, %70
  br i1 %71, label %72, label %73

72:                                               ; preds = %66
  store i32 5, ptr %7, align 4
  br label %77, !llvm.loop !171

73:                                               ; preds = %66
  %74 = load ptr, ptr %6, align 8, !tbaa !5
  %75 = load ptr, ptr %2, align 8, !tbaa !5
  %76 = call i32 @clusterNodeDelFailureReport(ptr noundef %74, ptr noundef %75)
  store i32 0, ptr %7, align 4
  br label %77

77:                                               ; preds = %73, %72
  call void @llvm.lifetime.end.p0(i64 8, ptr %6) #16
  %78 = load i32, ptr %7, align 4
  switch i32 %78, label %84 [
    i32 0, label %79
    i32 5, label %62
  ]

79:                                               ; preds = %77
  br label %62, !llvm.loop !171

80:                                               ; preds = %62
  %81 = load ptr, ptr %4, align 8, !tbaa !113
  call void @dictReleaseIterator(ptr noundef %81)
  %82 = load ptr, ptr %2, align 8, !tbaa !5
  call void @clusterRemoveNodeFromShard(ptr noundef %82)
  %83 = load ptr, ptr %2, align 8, !tbaa !5
  call void @freeClusterNode(ptr noundef %83)
  call void @llvm.lifetime.end.p0(i64 8, ptr %5) #16
  call void @llvm.lifetime.end.p0(i64 8, ptr %4) #16
  call void @llvm.lifetime.end.p0(i64 4, ptr %3) #16
  ret void

84:                                               ; preds = %77
  unreachable
}