; Function Attrs: nounwind uwtable
define dso_local void @clusterDelNode(ptr noundef %0) local_unnamed_addr #3 {
  %.pre25 = load ptr, ptr getelementptr inbounds nuw (i8, ptr @server, i64 7920), align 8, !tbaa !56
  br label %2

2:                                                ; preds = %1, %23
  %3 = phi ptr [ %.pre25, %1 ], [ %24, %23 ]
  %indvars.iv = phi i64 [ 0, %1 ], [ %indvars.iv.next, %23 ]
  %4 = getelementptr inbounds nuw i8, ptr %3, i64 131120
  %5 = getelementptr inbounds nuw [16384 x ptr], ptr %4, i64 0, i64 %indvars.iv
  %6 = load ptr, ptr %5, align 8, !tbaa !46
  %7 = icmp eq ptr %6, %0
  br i1 %7, label %8, label %9

8:                                                ; preds = %2
  store ptr null, ptr %5, align 8, !tbaa !46
  br label %9

9:                                                ; preds = %8, %2
  %10 = getelementptr inbounds nuw i8, ptr %3, i64 48
  %11 = getelementptr inbounds nuw [16384 x ptr], ptr %10, i64 0, i64 %indvars.iv
  %12 = load ptr, ptr %11, align 8, !tbaa !46
  %13 = icmp eq ptr %12, %0
  br i1 %13, label %14, label %15

14:                                               ; preds = %9
  store ptr null, ptr %11, align 8, !tbaa !46
  br label %15

15:                                               ; preds = %14, %9
  %16 = getelementptr inbounds nuw i8, ptr %3, i64 262192
  %17 = getelementptr inbounds nuw [16384 x ptr], ptr %16, i64 0, i64 %indvars.iv
  %18 = load ptr, ptr %17, align 8, !tbaa !46
  %19 = icmp eq ptr %18, %0
  br i1 %19, label %20, label %23

20:                                               ; preds = %15
  %21 = trunc nuw nsw i64 %indvars.iv to i32
  %22 = tail call i32 @clusterDelSlot(i32 noundef %21)
  %.pre = load ptr, ptr getelementptr inbounds nuw (i8, ptr @server, i64 7920), align 8, !tbaa !56
  br label %23

23:                                               ; preds = %15, %20
  %24 = phi ptr [ %3, %15 ], [ %.pre, %20 ]
  %indvars.iv.next = add nuw nsw i64 %indvars.iv, 1
  %exitcond.not = icmp eq i64 %indvars.iv.next, 16384
  br i1 %exitcond.not, label %25, label %2, !llvm.loop !150

25:                                               ; preds = %23
  %26 = getelementptr inbounds nuw i8, ptr %24, i64 24
  %27 = load ptr, ptr %26, align 8, !tbaa !72
  %28 = tail call ptr @dictGetSafeIterator(ptr noundef %27) #33
  %29 = tail call ptr @dictNext(ptr noundef %28) #33
  %.not23 = icmp eq ptr %29, null
  br i1 %.not23, label %._crit_edge, label %.lr.ph

.lr.ph:                                           ; preds = %25, %35
  %30 = phi ptr [ %36, %35 ], [ %29, %25 ]
  %31 = tail call ptr @dictGetVal(ptr noundef nonnull %30) #33
  %32 = icmp eq ptr %31, %0
  br i1 %32, label %35, label %33, !llvm.loop !151

33:                                               ; preds = %.lr.ph
  %34 = tail call i32 @clusterNodeDelFailureReport(ptr noundef %31, ptr noundef %0)
  br label %35

35:                                               ; preds = %.lr.ph, %33
  %36 = tail call ptr @dictNext(ptr noundef %28) #33
  %.not = icmp eq ptr %36, null
  br i1 %.not, label %._crit_edge, label %.lr.ph

._crit_edge:                                      ; preds = %35, %25
  tail call void @dictReleaseIterator(ptr noundef %28) #33
  tail call void @clusterRemoveNodeFromShard(ptr noundef %0)
  tail call void @freeClusterNode(ptr noundef %0)
  ret void
}